target datalayout = "e-m:e-p270:32:32-p271:32:32-p272:64:64-i64:64-i128:128-f80:128-n8:16:32:64-S128"
target triple = "x86_64-unknown-linux-gnu"

%"class.icu_75::number::impl::ScientificModifier" = type { %"class.icu_75::number::impl::Modifier", i32, ptr }
%"class.icu_75::number::impl::Modifier" = type { ptr }
%"class.icu_75::UnicodeString" = type { %"class.icu_75::Replaceable", %"union.icu_75::UnicodeString::StackBufferOrFields" }
%"class.icu_75::Replaceable" = type { %"class.icu_75::UObject" }
%"class.icu_75::UObject" = type { ptr }
%"union.icu_75::UnicodeString::StackBufferOrFields" = type { %struct.anon.3, [32 x i8] }
%struct.anon.3 = type { i16, i32, i32, ptr }
%"struct.icu_75::FormattedStringBuilder::Field" = type { i8 }
%"class.icu_75::number::impl::ScientificHandler" = type { %"class.icu_75::number::impl::MicroPropsGenerator", %"class.icu_75::number::impl::MultiplierProducer", %"struct.icu_75::number::Notation::NotationUnion::ScientificSettings", ptr, ptr }
%"class.icu_75::number::impl::MicroPropsGenerator" = type { ptr }
%"class.icu_75::number::impl::MultiplierProducer" = type { ptr }
%"struct.icu_75::number::Notation::NotationUnion::ScientificSettings" = type { i8, i8, i16, i32 }
%"struct.icu_75::number::impl::Modifier::Parameters" = type { ptr, i32, i32 }
%"class.icu_75::number::impl::RoundingImpl" = type <{ %"class.icu_75::number::Precision", i32, i8, [3 x i8] }>
%"class.icu_75::number::Precision" = type <{ i32, [4 x i8], %"union.icu_75::number::Precision::PrecisionUnion", i32, [4 x i8] }>
%"union.icu_75::number::Precision::PrecisionUnion" = type { %"struct.icu_75::number::Precision::PrecisionUnion::IncrementSettings" }
%"struct.icu_75::number::Precision::PrecisionUnion::IncrementSettings" = type { i64, i16, i16 }
%"struct.icu_75::number::impl::MicroProps" = type <{ %"class.icu_75::number::impl::MicroPropsGenerator", %"struct.icu_75::number::impl::SimpleMicroProps", %"class.icu_75::number::impl::RoundingImpl", %"class.icu_75::number::impl::Padder", %"class.icu_75::number::IntegerWidth", i32, [9 x i8], [3 x i8], ptr, ptr, ptr, ptr, %struct.anon.9, %"class.icu_75::MeasureUnit", %"class.icu_75::number::impl::IntMeasures", i32, i32, i8, [7 x i8] }>
%"struct.icu_75::number::impl::SimpleMicroProps" = type { [4 x i8], %"class.icu_75::number::impl::Grouper", i8, i32, %"class.icu_75::UnicodeString", ptr }
%"class.icu_75::number::impl::Grouper" = type { i16, i16, i16, i32 }
%"class.icu_75::number::impl::Padder" = type { i32, %union.anon.5 }
%union.anon.5 = type { %struct.anon.6 }
%struct.anon.6 = type { i32, i32 }
%"class.icu_75::number::IntegerWidth" = type <{ %union.anon.7, i8, [3 x i8] }>
%union.anon.7 = type { i32, [4 x i8] }
%struct.anon.9 = type { %"class.icu_75::number::impl::ScientificModifier", %"class.icu_75::number::impl::EmptyModifier", %"class.icu_75::number::impl::EmptyModifier", %"class.icu_75::number::impl::MultiplierFormatHandler", %"class.icu_75::number::impl::SimpleModifier" }
%"class.icu_75::number::impl::EmptyModifier" = type <{ %"class.icu_75::number::impl::Modifier", i8, [7 x i8] }>
%"class.icu_75::number::impl::MultiplierFormatHandler" = type { %"class.icu_75::number::impl::MicroPropsGenerator", %"class.icu_75::number::Scale", ptr }
%"class.icu_75::number::Scale" = type <{ i32, [4 x i8], ptr, i32, [4 x i8] }>
%"class.icu_75::number::impl::SimpleModifier" = type { %"class.icu_75::number::impl::Modifier", %"class.icu_75::UnicodeString", %"struct.icu_75::FormattedStringBuilder::Field", i8, i32, i32, i32, %"struct.icu_75::number::impl::Modifier::Parameters" }
%"class.icu_75::MeasureUnit" = type <{ %"class.icu_75::UObject", ptr, i16, i8, [5 x i8] }>
%"class.icu_75::number::impl::IntMeasures" = type <{ %"class.icu_75::MaybeStackArray.10", i32, [4 x i8] }>
%"class.icu_75::MaybeStackArray.10" = type { ptr, i32, i8, [2 x i64] }

; Function Attrs: mustprogress nounwind uwtable
define void @_ZN6icu_756number4impl18ScientificModifier3setEiPKNS1_17ScientificHandlerE(ptr noundef nonnull align 8 dereferenceable(24) %this, i32 noundef %exponent, ptr noundef %handler) #0 align 2 {
entry:
  %this.addr = alloca ptr, align 8
  %exponent.addr = alloca i32, align 4
  %handler.addr = alloca ptr, align 8
  store ptr %this, ptr %this.addr, align 8
  store i32 %exponent, ptr %exponent.addr, align 4
  store ptr %handler, ptr %handler.addr, align 8
  %this1 = load ptr, ptr %this.addr, align 8
  %0 = load i32, ptr %exponent.addr, align 4
  %fExponent = getelementptr inbounds %"class.icu_75::number::impl::ScientificModifier", ptr %this1, i32 0, i32 1
  store i32 %0, ptr %fExponent, align 8
  %1 = load ptr, ptr %handler.addr, align 8
  %fHandler = getelementptr inbounds %"class.icu_75::number::impl::ScientificModifier", ptr %this1, i32 0, i32 2
  store ptr %1, ptr %fHandler, align 8
  ret void
}

; Function Attrs: mustprogress nounwind uwtable
define internal noundef signext i8 @_ZL9U_FAILURE10UErrorCode(i32 noundef %code) #0 {
entry:
  %code.addr = alloca i32, align 4
  store i32 %code, ptr %code.addr, align 4
  %0 = load i32, ptr %code.addr, align 4
  %cmp = icmp sgt i32 %0, 0
  %conv = zext i1 %cmp to i8
  ret i8 %conv
}

; Function Attrs: mustprogress uwtable
define void @_ZNK6icu_756number4impl17ScientificHandler15processQuantityERNS1_15DecimalQuantityERNS1_10MicroPropsER10UErrorCode(ptr noundef nonnull align 8 dereferenceable(40) %this, ptr noundef nonnull align 8 dereferenceable(66) %quantity, ptr noundef nonnull align 8 dereferenceable(489) %micros, ptr noundef nonnull align 4 dereferenceable(4) %status) unnamed_addr #1 align 2 {
entry:
  %this.addr = alloca ptr, align 8
  %quantity.addr = alloca ptr, align 8
  %micros.addr = alloca ptr, align 8
  %status.addr = alloca ptr, align 8
  %exponent = alloca i32, align 4
  %mod = alloca ptr, align 8
  %ref.tmp = alloca %"class.icu_75::number::impl::RoundingImpl", align 8
  store ptr %this, ptr %this.addr, align 8
  store ptr %quantity, ptr %quantity.addr, align 8
  store ptr %micros, ptr %micros.addr, align 8
  store ptr %status, ptr %status.addr, align 8
  %this1 = load ptr, ptr %this.addr, align 8
  %fParent = getelementptr inbounds %"class.icu_75::number::impl::ScientificHandler", ptr %this1, i32 0, i32 4
  %0 = load ptr, ptr %fParent, align 8
  %1 = load ptr, ptr %quantity.addr, align 8
  %2 = load ptr, ptr %micros.addr, align 8
  %3 = load ptr, ptr %status.addr, align 8
  %vtable = load ptr, ptr %0, align 8
  %vfn = getelementptr inbounds ptr, ptr %vtable, i64 2
  %4 = load ptr, ptr %vfn, align 8
  call void %4(ptr noundef nonnull align 8 dereferenceable(8) %0, ptr noundef nonnull align 8 dereferenceable(66) %1, ptr noundef nonnull align 8 dereferenceable(489) %2, ptr noundef nonnull align 4 dereferenceable(4) %3)
  %5 = load ptr, ptr %status.addr, align 8
  %6 = load i32, ptr %5, align 4
  %call = call noundef signext i8 @_ZL9U_FAILURE10UErrorCode(i32 noundef %6)
  %tobool = icmp ne i8 %call, 0
  br i1 %tobool, label %if.then, label %if.end

if.then:                                          ; preds = %entry
  br label %return

if.end:                                           ; preds = %entry
  %7 = load ptr, ptr %quantity.addr, align 8
  %vtable2 = load ptr, ptr %7, align 8
  %vfn3 = getelementptr inbounds ptr, ptr %vtable2, i64 4
  %8 = load ptr, ptr %vfn3, align 8
  %call4 = call noundef zeroext i1 %8(ptr noundef nonnull align 8 dereferenceable(66) %7)
  br i1 %call4, label %if.then8, label %lor.lhs.false

lor.lhs.false:                                    ; preds = %if.end
  %9 = load ptr, ptr %quantity.addr, align 8
  %vtable5 = load ptr, ptr %9, align 8
  %vfn6 = getelementptr inbounds ptr, ptr %vtable5, i64 3
  %10 = load ptr, ptr %vfn6, align 8
  %call7 = call noundef zeroext i1 %10(ptr noundef nonnull align 8 dereferenceable(66) %9)
  br i1 %call7, label %if.then8, label %if.end9

if.then8:                                         ; preds = %lor.lhs.false, %if.end
  %11 = load ptr, ptr %micros.addr, align 8
  %helpers = getelementptr inbounds %"struct.icu_75::number::impl::MicroProps", ptr %11, i32 0, i32 12
  %emptyStrongModifier = getelementptr inbounds %struct.anon.9, ptr %helpers, i32 0, i32 2
  %12 = load ptr, ptr %micros.addr, align 8
  %modInner = getelementptr inbounds %"struct.icu_75::number::impl::MicroProps", ptr %12, i32 0, i32 11
  store ptr %emptyStrongModifier, ptr %modInner, align 8
  br label %return

if.end9:                                          ; preds = %lor.lhs.false
  %13 = load ptr, ptr %quantity.addr, align 8
  %call10 = call noundef zeroext i1 @_ZNK6icu_756number4impl15DecimalQuantity9isZeroishEv(ptr noundef nonnull align 8 dereferenceable(66) %13)
  br i1 %call10, label %if.then11, label %if.else19

if.then11:                                        ; preds = %if.end9
  %fSettings = getelementptr inbounds %"class.icu_75::number::impl::ScientificHandler", ptr %this1, i32 0, i32 2
  %fRequireMinInt = getelementptr inbounds %"struct.icu_75::number::Notation::NotationUnion::ScientificSettings", ptr %fSettings, i32 0, i32 1
  %14 = load i8, ptr %fRequireMinInt, align 1
  %tobool12 = trunc i8 %14 to i1
  br i1 %tobool12, label %land.lhs.true, label %if.else

land.lhs.true:                                    ; preds = %if.then11
  %15 = load ptr, ptr %micros.addr, align 8
  %rounder = getelementptr inbounds %"struct.icu_75::number::impl::MicroProps", ptr %15, i32 0, i32 2
  %call13 = call noundef zeroext i1 @_ZNK6icu_756number4impl12RoundingImpl19isSignificantDigitsEv(ptr noundef nonnull align 8 dereferenceable(37) %rounder)
  br i1 %call13, label %if.then14, label %if.else

if.then14:                                        ; preds = %land.lhs.true
  %16 = load ptr, ptr %micros.addr, align 8
  %rounder15 = getelementptr inbounds %"struct.icu_75::number::impl::MicroProps", ptr %16, i32 0, i32 2
  %17 = load ptr, ptr %quantity.addr, align 8
  %fSettings16 = getelementptr inbounds %"class.icu_75::number::impl::ScientificHandler", ptr %this1, i32 0, i32 2
  %fEngineeringInterval = getelementptr inbounds %"struct.icu_75::number::Notation::NotationUnion::ScientificSettings", ptr %fSettings16, i32 0, i32 0
  %18 = load i8, ptr %fEngineeringInterval, align 8
  %conv = sext i8 %18 to i32
  %19 = load ptr, ptr %status.addr, align 8
  %20 = load i32, ptr %19, align 4
  call void @_ZN6icu_756number4impl12RoundingImpl5applyERNS1_15DecimalQuantityEi10UErrorCode(ptr noundef nonnull align 8 dereferenceable(37) %rounder15, ptr noundef nonnull align 8 dereferenceable(66) %17, i32 noundef %conv, i32 noundef %20)
  store i32 0, ptr %exponent, align 4
  br label %if.end18

if.else:                                          ; preds = %land.lhs.true, %if.then11
  %21 = load ptr, ptr %micros.addr, align 8
  %rounder17 = getelementptr inbounds %"struct.icu_75::number::impl::MicroProps", ptr %21, i32 0, i32 2
  %22 = load ptr, ptr %quantity.addr, align 8
  %23 = load ptr, ptr %status.addr, align 8
  call void @_ZNK6icu_756number4impl12RoundingImpl5applyERNS1_15DecimalQuantityER10UErrorCode(ptr noundef nonnull align 8 dereferenceable(37) %rounder17, ptr noundef nonnull align 8 dereferenceable(66) %22, ptr noundef nonnull align 4 dereferenceable(4) %23)
  store i32 0, ptr %exponent, align 4
  br label %if.end18

if.end18:                                         ; preds = %if.else, %if.then14
  br label %if.end22

if.else19:                                        ; preds = %if.end9
  %24 = load ptr, ptr %micros.addr, align 8
  %rounder20 = getelementptr inbounds %"struct.icu_75::number::impl::MicroProps", ptr %24, i32 0, i32 2
  %25 = load ptr, ptr %quantity.addr, align 8
  %add.ptr = getelementptr inbounds i8, ptr %this1, i64 8
  %26 = load ptr, ptr %status.addr, align 8
  %call21 = call noundef i32 @_ZN6icu_756number4impl12RoundingImpl24chooseMultiplierAndApplyERNS1_15DecimalQuantityERKNS1_18MultiplierProducerER10UErrorCode(ptr noundef nonnull align 8 dereferenceable(37) %rounder20, ptr noundef nonnull align 8 dereferenceable(66) %25, ptr noundef nonnull align 8 dereferenceable(8) %add.ptr, ptr noundef nonnull align 4 dereferenceable(4) %26)
  %sub = sub nsw i32 0, %call21
  store i32 %sub, ptr %exponent, align 4
  br label %if.end22

if.end22:                                         ; preds = %if.else19, %if.end18
  %27 = load ptr, ptr %micros.addr, align 8
  %helpers23 = getelementptr inbounds %"struct.icu_75::number::impl::MicroProps", ptr %27, i32 0, i32 12
  %scientificModifier = getelementptr inbounds %struct.anon.9, ptr %helpers23, i32 0, i32 0
  store ptr %scientificModifier, ptr %mod, align 8
  %28 = load ptr, ptr %mod, align 8
  %29 = load i32, ptr %exponent, align 4
  call void @_ZN6icu_756number4impl18ScientificModifier3setEiPKNS1_17ScientificHandlerE(ptr noundef nonnull align 8 dereferenceable(24) %28, i32 noundef %29, ptr noundef %this1)
  %30 = load ptr, ptr %mod, align 8
  %31 = load ptr, ptr %micros.addr, align 8
  %modInner24 = getelementptr inbounds %"struct.icu_75::number::impl::MicroProps", ptr %31, i32 0, i32 11
  store ptr %30, ptr %modInner24, align 8
  %32 = load ptr, ptr %quantity.addr, align 8
  %33 = load i32, ptr %exponent, align 4
  call void @_ZN6icu_756number4impl15DecimalQuantity14adjustExponentEi(ptr noundef nonnull align 8 dereferenceable(66) %32, i32 noundef %33)
  call void @_ZN6icu_756number4impl12RoundingImpl11passThroughEv(ptr sret(%"class.icu_75::number::impl::RoundingImpl") align 8 %ref.tmp)
  %34 = load ptr, ptr %micros.addr, align 8
  %rounder25 = getelementptr inbounds %"struct.icu_75::number::impl::MicroProps", ptr %34, i32 0, i32 2
  call void @llvm.memcpy.p0.p0.i64(ptr align 8 %rounder25, ptr align 8 %ref.tmp, i64 37, i1 false)
  br label %return

return:                                           ; preds = %if.end22, %if.then8, %if.then
  ret void
}