; Function Attrs: mustprogress uwtable
define void @_ZNK6icu_756number4impl17ScientificHandler15processQuantityERNS1_15DecimalQuantityERNS1_10MicroPropsER10UErrorCode(ptr noundef nonnull align 8 dereferenceable(40) %this, ptr noundef nonnull align 8 dereferenceable(66) %quantity, ptr noundef nonnull align 8 dereferenceable(489) %micros, ptr noundef nonnull align 4 dereferenceable(4) %status) unnamed_addr #1 align 2 {
entry:
  %ref.tmp = alloca %"class.icu_75::number::impl::RoundingImpl", align 8
  %fParent = getelementptr inbounds i8, ptr %this, i64 32
  %0 = load ptr, ptr %fParent, align 8
  %vtable = load ptr, ptr %0, align 8
  %vfn = getelementptr inbounds i8, ptr %vtable, i64 16
  %1 = load ptr, ptr %vfn, align 8
  tail call void %1(ptr noundef nonnull align 8 dereferenceable(8) %0, ptr noundef nonnull align 8 dereferenceable(66) %quantity, ptr noundef nonnull align 8 dereferenceable(489) %micros, ptr noundef nonnull align 4 dereferenceable(4) %status)
  %2 = load i32, ptr %status, align 4
  %cmp.i = icmp slt i32 %2, 1
  br i1 %cmp.i, label %if.end, label %return

if.end:                                           ; preds = %entry
  %vtable2 = load ptr, ptr %quantity, align 8
  %vfn3 = getelementptr inbounds i8, ptr %vtable2, i64 32
  %3 = load ptr, ptr %vfn3, align 8
  %call4 = tail call noundef zeroext i1 %3(ptr noundef nonnull align 8 dereferenceable(66) %quantity)
  br i1 %call4, label %if.then8, label %lor.lhs.false

lor.lhs.false:                                    ; preds = %if.end
  %vtable5 = load ptr, ptr %quantity, align 8
  %vfn6 = getelementptr inbounds i8, ptr %vtable5, i64 24
  %4 = load ptr, ptr %vfn6, align 8
  %call7 = tail call noundef zeroext i1 %4(ptr noundef nonnull align 8 dereferenceable(66) %quantity)
  br i1 %call7, label %if.then8, label %if.end9

if.then8:                                         ; preds = %lor.lhs.false, %if.end
  %emptyStrongModifier = getelementptr inbounds i8, ptr %micros, i64 256
  %modInner = getelementptr inbounds i8, ptr %micros, i64 208
  store ptr %emptyStrongModifier, ptr %modInner, align 8
  br label %return

if.end9:                                          ; preds = %lor.lhs.false
  %call10 = tail call noundef zeroext i1 @_ZNK6icu_756number4impl15DecimalQuantity9isZeroishEv(ptr noundef nonnull align 8 dereferenceable(66) %quantity)
  br i1 %call10, label %if.then11, label %if.else19

if.then11:                                        ; preds = %if.end9
  %fSettings = getelementptr inbounds i8, ptr %this, i64 16
  %fRequireMinInt = getelementptr inbounds i8, ptr %this, i64 17
  %5 = load i8, ptr %fRequireMinInt, align 1
  %6 = and i8 %5, 1
  %tobool12.not = icmp eq i8 %6, 0
  br i1 %tobool12.not, label %if.else, label %land.lhs.true

land.lhs.true:                                    ; preds = %if.then11
  %rounder = getelementptr inbounds i8, ptr %micros, i64 104
  %call13 = tail call noundef zeroext i1 @_ZNK6icu_756number4impl12RoundingImpl19isSignificantDigitsEv(ptr noundef nonnull align 8 dereferenceable(37) %rounder)
  br i1 %call13, label %if.then14, label %if.else

if.then14:                                        ; preds = %land.lhs.true
  %7 = load i8, ptr %fSettings, align 8
  %conv = sext i8 %7 to i32
  %8 = load i32, ptr %status, align 4
  tail call void @_ZN6icu_756number4impl12RoundingImpl5applyERNS1_15DecimalQuantityEi10UErrorCode(ptr noundef nonnull align 8 dereferenceable(37) %rounder, ptr noundef nonnull align 8 dereferenceable(66) %quantity, i32 noundef %conv, i32 noundef %8)
  br label %if.end22

if.else:                                          ; preds = %land.lhs.true, %if.then11
  %rounder17 = getelementptr inbounds i8, ptr %micros, i64 104
  tail call void @_ZNK6icu_756number4impl12RoundingImpl5applyERNS1_15DecimalQuantityER10UErrorCode(ptr noundef nonnull align 8 dereferenceable(37) %rounder17, ptr noundef nonnull align 8 dereferenceable(66) %quantity, ptr noundef nonnull align 4 dereferenceable(4) %status)
  br label %if.end22

if.else19:                                        ; preds = %if.end9
  %rounder20 = getelementptr inbounds i8, ptr %micros, i64 104
  %add.ptr = getelementptr inbounds i8, ptr %this, i64 8
  %call21 = tail call noundef i32 @_ZN6icu_756number4impl12RoundingImpl24chooseMultiplierAndApplyERNS1_15DecimalQuantityERKNS1_18MultiplierProducerER10UErrorCode(ptr noundef nonnull align 8 dereferenceable(37) %rounder20, ptr noundef nonnull align 8 dereferenceable(66) %quantity, ptr noundef nonnull align 8 dereferenceable(8) %add.ptr, ptr noundef nonnull align 4 dereferenceable(4) %status)
  %sub = sub nsw i32 0, %call21
  br label %if.end22

if.end22:                                         ; preds = %if.then14, %if.else, %if.else19
  %exponent.0 = phi i32 [ 0, %if.then14 ], [ 0, %if.else ], [ %sub, %if.else19 ]
  %helpers23 = getelementptr inbounds i8, ptr %micros, i64 216
  %fExponent.i = getelementptr inbounds i8, ptr %micros, i64 224
  store i32 %exponent.0, ptr %fExponent.i, align 8
  %fHandler.i = getelementptr inbounds i8, ptr %micros, i64 232
  store ptr %this, ptr %fHandler.i, align 8
  %modInner24 = getelementptr inbounds i8, ptr %micros, i64 208
  store ptr %helpers23, ptr %modInner24, align 8
  tail call void @_ZN6icu_756number4impl15DecimalQuantity14adjustExponentEi(ptr noundef nonnull align 8 dereferenceable(66) %quantity, i32 noundef %exponent.0)
  call void @_ZN6icu_756number4impl12RoundingImpl11passThroughEv(ptr nonnull sret(%"class.icu_75::number::impl::RoundingImpl") align 8 %ref.tmp)
  %rounder25 = getelementptr inbounds i8, ptr %micros, i64 104
  call void @llvm.memcpy.p0.p0.i64(ptr noundef nonnull align 8 dereferenceable(37) %rounder25, ptr noundef nonnull align 8 dereferenceable(37) %ref.tmp, i64 37, i1 false)
  br label %return

return:                                           ; preds = %entry, %if.end22, %if.then8
  ret void
}